; Function Attrs: nofree nounwind memory(readwrite, inaccessiblemem: none) uwtable
define hidden void @sfparse_unescape(ptr noundef captures(none) %0, ptr noundef readonly captures(none) %1) local_unnamed_addr #5 {
  %3 = getelementptr inbounds nuw i8, ptr %1, i64 8
  %4 = load i64, ptr %3, align 8, !tbaa !22
  %5 = icmp eq i64 %4, 0
  br i1 %5, label %28, label %6

6:                                                ; preds = %2
  %7 = load ptr, ptr %0, align 8, !tbaa !19
  %8 = load ptr, ptr %1, align 8, !tbaa !19
  %9 = tail call ptr @memchr(ptr noundef %8, i32 noundef 92, i64 noundef %4) #9
  %10 = icmp eq ptr %9, null
  br i1 %10, label %._crit_edge, label %.lr.ph

._crit_edge:                                      ; preds = %.lr.ph, %6
  %.028.lcssa = phi ptr [ %7, %6 ], [ %24, %.lr.ph ]
  %.027.lcssa = phi i64 [ %4, %6 ], [ %25, %.lr.ph ]
  %.0.lcssa = phi ptr [ %8, %6 ], [ %22, %.lr.ph ]
  tail call void @llvm.memcpy.p0.p0.i64(ptr align 1 %.028.lcssa, ptr align 1 %.0.lcssa, i64 %.027.lcssa, i1 false)
  %11 = getelementptr inbounds nuw i8, ptr %.028.lcssa, i64 %.027.lcssa
  %12 = load ptr, ptr %0, align 8, !tbaa !19
  %13 = ptrtoint ptr %11 to i64
  %14 = ptrtoint ptr %12 to i64
  %15 = sub i64 %13, %14
  br label %28

.lr.ph:                                           ; preds = %6, %.lr.ph
  %16 = phi ptr [ %26, %.lr.ph ], [ %9, %6 ]
  %.034 = phi ptr [ %22, %.lr.ph ], [ %8, %6 ]
  %.02733 = phi i64 [ %25, %.lr.ph ], [ %4, %6 ]
  %.02832 = phi ptr [ %24, %.lr.ph ], [ %7, %6 ]
  %17 = ptrtoint ptr %16 to i64
  %18 = ptrtoint ptr %.034 to i64
  %19 = sub i64 %17, %18
  tail call void @llvm.memcpy.p0.p0.i64(ptr align 1 %.02832, ptr align 1 %.034, i64 %19, i1 false)
  %20 = getelementptr inbounds nuw i8, ptr %.02832, i64 %19
  %21 = getelementptr inbounds nuw i8, ptr %16, i64 1
  %22 = getelementptr inbounds nuw i8, ptr %16, i64 2
  %23 = load i8, ptr %21, align 1, !tbaa !12
  %24 = getelementptr inbounds nuw i8, ptr %20, i64 1
  store i8 %23, ptr %20, align 1, !tbaa !12
  %.neg31 = add i64 %.02733, -2
  %25 = sub i64 %.neg31, %19
  %26 = tail call ptr @memchr(ptr noundef nonnull %22, i32 noundef 92, i64 noundef %25) #9
  %27 = icmp eq ptr %26, null
  br i1 %27, label %._crit_edge, label %.lr.ph

28:                                               ; preds = %2, %._crit_edge
  %.sink = phi i64 [ %15, %._crit_edge ], [ 0, %2 ]
  %29 = getelementptr inbounds nuw i8, ptr %0, i64 8
  store i64 %.sink, ptr %29, align 8, !tbaa !22
  ret void
}